; Function Attrs: mustprogress uwtable
define noundef range(i32 1, 5) i32 @_ZN32pxrInternal_v0_24__pxrReserved__20HioGetComponentCountENS_9HioFormatE(i32 noundef %0) local_unnamed_addr #0 {
  %2 = alloca %"class.pxrInternal_v0_24__pxrReserved__::TfCallContext", align 8
  %3 = alloca %"class.pxrInternal_v0_24__pxrReserved__::TfCallContext", align 8
  switch i32 %0, label %12 [
    i32 0, label %17
    i32 4, label %17
    i32 8, label %17
    i32 12, label %17
    i32 16, label %17
    i32 20, label %17
    i32 24, label %17
    i32 28, label %17
    i32 32, label %17
    i32 36, label %17
    i32 1, label %4
    i32 5, label %4
    i32 9, label %4
    i32 13, label %4
    i32 17, label %4
    i32 21, label %4
    i32 25, label %4
    i32 29, label %4
    i32 33, label %4
    i32 37, label %4
    i32 2, label %5
    i32 6, label %5
    i32 10, label %5
    i32 14, label %5
    i32 18, label %5
    i32 22, label %5
    i32 26, label %5
    i32 30, label %5
    i32 34, label %5
    i32 38, label %5
    i32 40, label %5
    i32 41, label %5
    i32 3, label %6
    i32 7, label %6
    i32 11, label %6
    i32 15, label %6
    i32 19, label %6
    i32 23, label %6
    i32 27, label %6
    i32 31, label %6
    i32 35, label %6
    i32 39, label %6
    i32 42, label %6
    i32 43, label %6
    i32 44, label %6
    i32 45, label %6
    i32 -1, label %7
    i32 46, label %7
  ]

4:                                                ; preds = %1, %1, %1, %1, %1, %1, %1, %1, %1, %1
  br label %17

5:                                                ; preds = %1, %1, %1, %1, %1, %1, %1, %1, %1, %1, %1, %1
  br label %17

6:                                                ; preds = %1, %1, %1, %1, %1, %1, %1, %1, %1, %1, %1, %1, %1, %1
  br label %17

7:                                                ; preds = %1, %1
  store ptr @.str, ptr %2, align 8
  %8 = getelementptr inbounds nuw i8, ptr %2, i64 8
  store ptr @__func__._ZN32pxrInternal_v0_24__pxrReserved__20HioGetComponentCountENS_9HioFormatE, ptr %8, align 8
  %9 = getelementptr inbounds nuw i8, ptr %2, i64 16
  store i64 218, ptr %9, align 8
  %10 = getelementptr inbounds nuw i8, ptr %2, i64 24
  store ptr @__PRETTY_FUNCTION__._ZN32pxrInternal_v0_24__pxrReserved__20HioGetComponentCountENS_9HioFormatE, ptr %10, align 8
  %11 = getelementptr inbounds nuw i8, ptr %2, i64 32
  store i8 0, ptr %11, align 8
  call void (ptr, i32, ptr, ...) @_ZN32pxrInternal_v0_24__pxrReserved__18Tf_PostErrorHelperERKNS_13TfCallContextENS_16TfDiagnosticTypeEPKcz(ptr noundef nonnull align 8 dereferenceable(33) %2, i32 noundef 1, ptr noundef nonnull @.str.5)
  br label %17

12:                                               ; preds = %1
  store ptr @.str, ptr %3, align 8
  %13 = getelementptr inbounds nuw i8, ptr %3, i64 8
  store ptr @__func__._ZN32pxrInternal_v0_24__pxrReserved__20HioGetComponentCountENS_9HioFormatE, ptr %13, align 8
  %14 = getelementptr inbounds nuw i8, ptr %3, i64 16
  store i64 221, ptr %14, align 8
  %15 = getelementptr inbounds nuw i8, ptr %3, i64 24
  store ptr @__PRETTY_FUNCTION__._ZN32pxrInternal_v0_24__pxrReserved__20HioGetComponentCountENS_9HioFormatE, ptr %15, align 8
  %16 = getelementptr inbounds nuw i8, ptr %3, i64 32
  store i8 0, ptr %16, align 8
  call void (ptr, i32, ptr, ...) @_ZN32pxrInternal_v0_24__pxrReserved__18Tf_PostErrorHelperERKNS_13TfCallContextENS_16TfDiagnosticTypeEPKcz(ptr noundef nonnull align 8 dereferenceable(33) %3, i32 noundef 1, ptr noundef nonnull @.str.4)
  br label %17

17:                                               ; preds = %1, %1, %1, %1, %1, %1, %1, %1, %1, %1, %12, %7, %6, %5, %4
  %.0 = phi i32 [ 1, %12 ], [ 1, %7 ], [ 4, %6 ], [ 3, %5 ], [ 2, %4 ], [ 1, %1 ], [ 1, %1 ], [ 1, %1 ], [ 1, %1 ], [ 1, %1 ], [ 1, %1 ], [ 1, %1 ], [ 1, %1 ], [ 1, %1 ], [ 1, %1 ]
  ret i32 %.0
}